; Function Attrs: mustprogress uwtable
define noundef zeroext i1 @_ZN7rocksdb16ThreadStatusUtil27MaybeInitThreadLocalUpdaterEPKNS_3EnvE(ptr noundef %0) local_unnamed_addr #3 align 2 {
  %2 = tail call align 1 ptr @llvm.threadlocal.address.p0(ptr align 1 @_ZN7rocksdb16ThreadStatusUtil27thread_updater_initialized_E)
  %3 = load i8, ptr %2, align 1, !tbaa !14, !range !16, !noundef !17
  %4 = trunc nuw i8 %3 to i1
  %5 = icmp eq ptr %0, null
  %or.cond.not = or i1 %5, %4
  br i1 %or.cond.not, label %._crit_edge, label %6

._crit_edge:                                      ; preds = %1
  %.pre = tail call align 8 ptr @llvm.threadlocal.address.p0(ptr align 8 @_ZN7rocksdb16ThreadStatusUtil27thread_updater_local_cache_E)
  br label %12

6:                                                ; preds = %1
  store i8 1, ptr %2, align 1, !tbaa !14
  %7 = load ptr, ptr %0, align 8, !tbaa !20
  %8 = getelementptr inbounds nuw i8, ptr %7, i64 640
  %9 = load ptr, ptr %8, align 8
  %10 = tail call noundef ptr %9(ptr noundef nonnull align 8 dereferenceable(72) %0)
  %11 = tail call align 8 ptr @llvm.threadlocal.address.p0(ptr align 8 @_ZN7rocksdb16ThreadStatusUtil27thread_updater_local_cache_E)
  store ptr %10, ptr %11, align 8, !tbaa !18
  br label %12

12:                                               ; preds = %._crit_edge, %6
  %.pre-phi = phi ptr [ %.pre, %._crit_edge ], [ %11, %6 ]
  %13 = load ptr, ptr %.pre-phi, align 8, !tbaa !18
  %14 = icmp ne ptr %13, null
  ret i1 %14
}